(lp1
(F1.1152848982492316
F10.029108503991127
F0.20037889701192391
tp2
a(F1.1462746439289466
F12.226868589384232
F0.25575497470318465
tp3
a(F1.1848082341311335
F15.065931832611378
F0.94267756373114109
tp4
a(F0.87010797574265153
F8.9102493129459948
F0.53762607901759185
tp5
a(F0.87597292158275253
F8.9533686491690236
F0.47929564640173239
tp6
a(F1.0674578437452125
F11.852062313017315
F0.13041293997214198
tp7
a(F1.0787475949230243
F9.1102530493836529
F0.14630465288670969
tp8
a(F1.2352291629576302
F9.5118072591357716
F0.040655683752456317
tp9
a(F0.89688667846741654
F9.5039198174648547
F0.50612881742281912
tp10
a(F1.1002900952381374
F8.9221220953942755
F0.17219233443182747
tp11
a(F0.88362184638817898
F9.8798325765870167
F0.48484914044626182
tp12
a(F1.0930003720545327
F8.8153751393988315
F0.17672943702951271
tp13
a(F0.85401297269491694
F9.8401343468160007
F0.49349331620841619
tp14
a(F0.92309194407640915
F8.7362602528209443
F0.56189668949991101
tp15
a(F0.87977867836761547
F9.3948376246819034
F0.48326867158722131
tp16
a(F1.2063554127975775
F8.5073980952233619
F0.99827902226261711
tp17
a(F1.1910611664551882
F9.2420866384209113
F0.02216357760177956
tp18
a(F1.2256751941577038
F8.5884941349238222
F0.061039573339085162
tp19
a(F0.93078188808511697
F11.440670362352888
F0.56234637378768615
tp20
a(F0.94230182726536149
F12.611957743222908
F0.55291006958231026
tp21
a(F1.1438428273441161
F10.764222265966497
F0.25611319919188857
tp22
a(F1.2456311887929139
F11.497728844868007
F0.067025649710219848
tp23
a(F0.90665166535089559
F10.050233316883801
F0.51823554393971738
tp24
a(F1.1441048388552642
F9.7481483056364411
F0.24027003801943525
tp25
a(F0.92531464186366474
F12.474911707970792
F0.55060588841997837
tp26
a(F1.1843277982713962
F15.143018821271864
F0.94919169967357242
tp27
a(F0.85721936606165805
F14.516027725085442
F0.41988045854935918
tp28
a(F0.89553732050688217
F9.3182121612381366
F0.51916169610704943
tp29
a(F1.128762196025618
F9.1040175669008168
F0.21453593013036054
tp30
a(F0.9104560627198478
F10.053803592493018
F0.53540828910070859
tp31
a(F0.87287800139997673
F9.1481642003888499
F0.48217767964722535
tp32
a(F1.0508039809331904
F14.127533106300529
F0.13366525600058754
tp33
a(F1.1807214251447409
F7.9750615265488225
F0.024174983480023671
tp34
a(F1.1388090691360082
F9.1527579252122138
F0.21449636406797701
tp35
a(F0.92977814992301477
F11.409058132928706
F0.55340009332350193
tp36
a(F1.0686965935416757
F12.827453780650393
F0.14125886462542181
tp37
a(F1.0874879912069724
F10.229125431705498
F0.15400546150406447
tp38
a(F0.93797187686248196
F12.173283912456526
F0.55592369719431944
tp39
a(F1.1135259821817862
F8.0545079586416861
F0.16991183996116233
tp40
a(F1.0925389268355781
F10.722631611205701
F0.17819586806789811
tp41
a(F0.8932709412271238
F8.7210474278956767
F0.51032967291191622
tp42
a(F1.0895492217371945
F9.7845301962529359
F0.16523817996623757
tp43
a(F1.2079596434184461
F10.645022066127671
F0.011880310823330631
tp44
a(F0.88121499876957798
F10.344621442467542
F0.48207869421268812
tp45
a(F1.0638731544804667
F13.655285706433885
F0.12594119955578298
tp46
a(F1.062491569828695
F10.668495503107021
F0.1461171843014849
tp47
a(F1.0964087123685717
F10.068832089920697
F0.18112369424968511
tp48
a(F0.88486696659123687
F8.00595151755026
F0.53992737363194299
tp49
a(F1.0879017267146096
F9.4531114898959157
F0.16470698973057496
tp50
a(F1.0883610188724411
F10.823392337506869
F0.15603632647372978
tp51
a(F0.94956927600577645
F15.285467041438284
F0.56033935043780936
tp52
a(F0.93221859535206053
F12.104620511422366
F0.56224689561960706
tp53
a(F0.85676700411183038
F8.7646688638824877
F0.48433748916273778
tp54
a(F0.90454314772933131
F8.1725121114718142
F0.55813529073291213
tp55
a(F0.86837735331816834
F8.9349736434904692
F0.4994875580367355
tp56
a(F1.114815106988009
F10.231468568435844
F0.2112861191525951
tp57
a(F0.94080200488384225
F14.577230889209014
F0.55769274476620334
tp58
a(F1.0953250401439258
F9.1616507149744884
F0.15722650174313968
tp59
a(F0.85880033383029775
F12.452930548218598
F0.42596894099979077
tp60
a(F0.89126212452775355
F7.9068504177243
F0.54235825303790686
tp61
a(F1.143491569665168
F9.8908538803249666
F0.2596581156041764
tp62
a(F1.1236736772478395
F9.1956026323394617
F0.20429532295131303
tp63
a(F1.0997965143225228
F9.1074243777976012
F0.15096582330986041
tp64
a(F1.0999720383088007
F7.0410190550993095
F0.1565662290347829
tp65
a(F0.92298004861687277
F10.93672949624875
F0.55632109227222315
tp66
a(F0.91481715252376616
F11.920078945770708
F0.54279525714548582
tp67
a(F1.1174558621925392
F8.326097911005057
F0.19674497418119063
tp68
a(F0.85389664902844375
F9.8185556938350373
F0.46890763608205255
tp69
a(F0.88881294128804034
F8.0739554649593366
F0.57170655187560282
tp70
a(F1.1377996773248478
F10.33816081301007
F0.22480594127008158
tp71
a(F1.1423338787963078
F12.431973227679538
F0.26859310942270664
tp72
a(F0.91688475065326058
F12.080285838270267
F0.55288381799697373
tp73
a(F0.91009546630347549
F10.226916441326598
F0.54081271713072931
tp74
a(F0.81926831733989947
F11.600099804508671
F0.72850380852353525
tp75
a(F1.065151942545
F11.369033417061566
F0.14890401353218841
tp76
a(F0.84733886616202359
F14.717403345446336
F0.40384363786717614
tp77
a(F1.0926420547884188
F9.4518289728888707
F0.16290858042058376
tp78
a(F1.1277553303144245
F8.6356441425087453
F0.18907639704165202
tp79
a(F1.0625401632229456
F12.910223136873114
F0.13085533659277682
tp80
a(F1.0675820660686057
F12.020342243868578
F0.1448872883168808
tp81
a(F0.90772331800237571
F9.8504064717720077
F0.54547008424748233
tp82
a(F1.194394160286975
F11.068198230871404
F0.97647863001649005
tp83
a(F0.8622330215167664
F12.370999296688034
F0.44624552041464927
tp84
a(F0.92269694402580382
F11.2498267586449
F0.56940372535315786
tp85
a(F1.1265407248636563
F9.146826267418124
F0.19660341681997962
tp86
a(F0.87656565926237617
F7.8748284355994356
F0.52057733914514526
tp87
a(F1.1301857733510878
F8.7660936479880931
F0.18902323944643307
tp88
a(F1.1497152832978677
F12.430613213427606
F0.2708761965394102
tp89
a(F1.0777330219929513
F11.591746553712087
F0.13337127707248875
tp90
a(F1.1504776132933723
F15.443062781775192
F0.28617663359126078
tp91
a(F0.85668760719007764
F11.860637436463179
F0.43832952658215008
tp92
a(F1.0935539849380236
F9.73324179742119
F0.15682186983292967
tp93
a(F0.90892493950216136
F8.9023903739544945
F0.5317722677184864
tp94
a(F0.88284967181431107
F10.060327548334461
F0.50245115137890184
tp95
a(F0.80383777077998053
F9.1808902487343786
F0.70733444896959707
tp96
a(F0.75158129962954134
F11.188157955432491
F0.62525810965880457
tp97
a(F1.1843783992369694
F12.487151177911183
F0.96062487764976701
tp98
a(F1.1167314958745895
F8.3930878497003025
F0.17947057345874817
tp99
a(F1.0863071161066211
F10.839326653056137
F0.16132425050772137
tp100
a(F1.0772947712865071
F10.025059631962137
F0.17040159681114986
tp101
a(F1.1261988404637966
F9.5320013000249038
F0.21182181214738449
tp102
a(F0.88221815374401413
F9.1639828996738988
F0.53110624546117624
tp103
a(F1.0908314194163375
F8.614375898771776
F0.15640737907376501
tp104
a(F1.1218530034436929
F8.872740176412572
F0.16831186724595104
tp105
a(F0.89937998457295054
F9.3783788511843458
F0.51048885699195878
tp106
a(F0.86798920916447497
F9.4652587848260499
F0.48028819770237041
tp107
a(F1.0645563767970754
F13.830259543161544
F0.1392146388617771
tp108
a(F1.0990955969922924
F9.1095811979995212
F0.15526643364809978
tp109
a(F1.1016770830075253
F8.6998198967950024
F0.17851686661281008
tp110
a(F1.0729585948985418
F11.292080927360315
F0.14332545026635934
tp111
a(F1.1060901785532518
F8.5154718991940328
F0.17440405728551156
tp112
a(F1.1302502284420353
F9.1109866706653069
F0.20156034943476731
tp113
a(F0.8998580715599489
F9.7290836137013716
F0.50921863554088864
tp114
a(F0.89391117687146715
F8.5050053402953019
F0.5126858016179846
tp115
a(F0.86819845601460854
F9.2066357985781266
F0.49172305012880391
tp116
a(F0.89001459883162948
F9.2349828359784727
F0.51771644182364185
tp117
a(F1.2033856932382305
F10.469468374801327
F0.0043847165546273548
tp118
a(F1.0909202886894542
F11.274433681945684
F0.13126256655007862
tp119
a(F0.81635436505627657
F14.825375189063942
F0.74249797018130048
tp120
a(F1.1261828339760636
F9.8214584169243171
F0.21788603157172437
tp121
a(F1.1258804737001296
F8.9786567807470501
F0.17419079437889629
tp122
a(F0.86455598970751824
F7.6077255430416502
F0.51017754788347514
tp123
a(F0.89644506782170597
F8.5987275646876622
F0.54301726537959372
tp124
a(F1.1422368422224298
F9.3600312273390287
F0.24184784498056944
tp125
a(F0.88093012355878297
F8.6450434933689966
F0.50648992355146927
tp126
a(F1.2132721234409214
F9.4679763608283292
F0.041644760725113916
tp127
a(F0.85882543718866755
F9.1966325979205763
F0.52116113762741534
tp128
a(F1.1406278073890685
F10.454524089532608
F0.23314149860680489
tp129
a(F0.89001293603634413
F8.3866717667712223
F0.53648220009854075
tp130
a(F0.87872622831351377
F9.890028304057024
F0.47188559139222175
tp131
a(F1.1416766404555407
F12.109086926557289
F0.26000523784159235
tp132
a(F0.82031844921037178
F15.73283803763659
F0.76322045775046088
tp133
a(F0.79169220436357646
F9.415380092702911
F0.71687606072024757
tp134
a(F0.75110181194711145
F9.9159555337284999
F0.62223469941650422
tp135
a(F0.77738155168126588
F9.197463275536558
F0.63564910434392707
tp136
a(F0.77883129705200393
F8.1199935733813557
F0.64648629754880882
tp137
a(F1.1405132258909914
F10.855929622122671
F0.2422952636548199
tp138
a(F1.064389356577953
F12.599759295717693
F0.14313583488006831
tp139
a(F1.1400075916864512
F11.635401470541616
F0.25237977183995441
tp140
a(F0.88782910523659286
F9.2550836510394721
F0.53664998331347902
tp141
a(F1.221602045418299
F8.6547843450626925
F0.070778133088824302
tp142
a(F1.1885221328008586
F10.726658016274047
F0.98269041286065562
tp143
a(F1.1380452089668724
F12.375946259915892
F0.26328833865081647
tp144
a(F0.9091371091087177
F10.835362059645849
F0.5174792076595035
tp145
a(F1.1029512115121758
F8.9665048481512812
F0.1745585296385993
tp146
a(F1.0566853797908944
F15.220702011411746
F0.13037424540285814
tp147
a(F1.1927677501449685
F11.849423711237666
F0.9944550172316996
tp148
a(F0.86088401376515822
F11.539274871174946
F0.45019635307245487
tp149
a(F0.87565152642799482
F10.822019038093186
F0.4644233107273027
tp150
a(F1.0681768051959895
F11.744055151468764
F0.14572958105638678
tp151
a(F1.1244255256597138
F7.8052453513377866
F0.16298960066926449
tp152
a(F1.1040283047219612
F9.8443394236509558
F0.1915826719163094
tp153
a(F0.91530773948419208
F9.8604298149542497
F0.54525294066757957
tp154
a(F1.0378172830184313
F18.49256674809434
F0.11679154501235067
tp155
a(F1.0692857061982737
F10.639444589768519
F0.1478098592613335
tp156
a(F1.0744992803297408
F10.974203905881014
F0.14111728428271408
tp157
a(F0.79857252609063967
F10.801983619416999
F0.71653890025043376
tp158
a(F0.94145084204198659
F13.98572428441642
F0.56406086561841773
tp159
a(F1.1272109810195421
F7.1622149217045887
F0.15149261511411649
tp160
a(F0.91478512251179323
F10.371262042171669
F0.55472772125607683
tp161
a(F0.8701438061788378
F10.157523945014441
F0.47321975721554688
tp162
a(F1.0976704571885543
F9.3446373884696801
F0.14729020273346149
tp163
a(F1.1894461952904767
F12.41486018521192
F0.97134446365453675
tp164
a(F1.1782974463811227
F14.345181119815416
F0.95439911861555493
tp165
a(F1.0706985549819761
F12.327325479294565
F0.14921690858390546
tp166
a(F0.9137391603018632
F9.6345999742818815
F0.54460460796350862
tp167
a(F0.85524441219569147
F10.013790610174819
F0.46912575082450392
tp168
a(F1.0725489917181232
F10.675549611973038
F0.15125465678785766
tp169
a(F0.90225248348749665
F9.3354918804762868
F0.53569099675033838
tp170
a(F1.2180848126599664
F8.4300366742563337
F0.063645443130864843
tp171
a(F0.84292876566624031
F13.320322480967418
F0.43278821246912336
tp172
a(F1.0868913624315717
F10.738309331702391
F0.14501736411155719
tp173
a(F1.0844752362154948
F9.6615165707175787
F0.12922288169073481
tp174
a(F0.90916343441987513
F9.5752589559070049
F0.5400422280633802
tp175
a(F1.1278585179449703
F9.3423489331700456
F0.21562055640513633
tp176
a(F0.78627918118713946
F9.7624282040719912
F0.63568785228070424
tp177
a(F1.1154903849871756
F9.1683990574960159
F0.14970662230389276
tp178
a(F1.0715133044348388
F12.506972526669902
F0.13972425430121715
tp179
a(F0.85018625803501457
F7.8227775262382533
F0.4952397390876625
tp180
a(F0.8572568556432334
F12.785324364550426
F0.42357132070575332
tp181
a(F0.90529559974819385
F9.0874819114120609
F0.5658347032815485
tp182
a(F1.1459693115979073
F9.8644009446523704
F0.23635386827849203
tp183
a(F1.1939424324179442
F9.5794513624330815
F0.012071573118537793
tp184
a(F0.89771452357895043
F8.022074199628074
F0.52819805206531345
tp185
a(F0.90870219699782095
F8.4973302098789336
F0.52421342643559876
tp186
a(F0.89996359903702516
F9.5460858722964232
F0.51803835065082016
tp187
a(F0.84964819080698117
F9.2964259409592245
F0.47677889912592808
tp188
a(F1.1307433606825981
F9.7897895299755575
F0.23608988356386462
tp189
a(F0.90907472692850166
F9.4877314522655993
F0.50381458445199223
tp190
a(F0.89812312548423712
F10.15764899676368
F0.48266510503171212
tp191
a(F0.87275855252470469
F9.5477842077352975
F0.50269565629321133
tp192
a(F1.1228442729683101
F8.2804818279163328
F0.18788134030662429
tp193
a(F1.1005780834408827
F8.987455625226664
F0.17529525786486189
tp194
a(F0.87239313396803309
F9.7313122685055564
F0.50290455898258746
tp195
a(F1.080233580149317
F11.304007016202439
F0.15791770273017858
tp196
a(F0.88192469445637789
F9.0827748520936691
F0.51197655431300348
tp197
a(F1.0772309074273936
F10.09322223835707
F0.13786554591721623
tp198
a(F0.87952040400187059
F9.1109200365569531
F0.50362793897418412
tp199
a(F0.87980350589669154
F8.8366229205814228
F0.49723066246438141
tp200
a(F1.2045763259357605
F9.1046139318368908
F0.056867983262606669
tp201
a(F0.92321227382618465
F13.112924374602111
F0.5538413066890433
tp202
a(F0.77258571478399884
F10.136229365024175
F0.65164570969493341
tp203
a(F1.1384675957117869
F10.844642995745639
F0.24726060105871694
tp204
a(F1.1190864028137848
F9.4394112876692233
F0.18296581550688684
tp205
a(F1.0864948060878912
F9.7045023138395887
F0.1686005011702234
tp206
a(F1.1328228131842069
F9.2233990952914677
F0.20539663362420624
tp207
a(F1.1105859944581646
F8.6512715648713634
F0.17213599089059151
tp208
a(F1.0784412240910886
F10.578531226906462
F0.17462138244835923
tp209
a(F1.1478495563714619
F7.2745407134678119
F0.17621111794294519
tp210
a(F1.1091563777974645
F7.8701835843947103
F0.16849960406118314
tp211
a(F0.90880708911651797
F9.2315166711420709
F0.56271623745299026
tp212
a(F1.0672547383328002
F12.557994131273793
F0.1339802638535702
tp213
a(F1.1194003236167107
F9.5069345656912176
F0.21734185592014044
tp214
a(F1.1586997207202516
F16.32787369727146
F0.29567611862332255
tp215
a(F1.1096187643150011
F9.1138800612495281
F0.15995361202545688
tp216
a(F0.74218439683517479
F11.66552317761627
F0.59270510927334441
tp217
a(F0.81616633502282643
F11.078289182525527
F0.71523795226201026
tp218
a(F0.91786506745516028
F11.036473318544676
F0.56187678694628995
tp219
a(F1.1151846499995022
F9.1888067363239294
F0.16745045647948475
tp220
a(F1.0826226667905874
F9.2107021642513693
F0.1445204475717109
tp221
a(F0.80910116019627187
F14.675756242048177
F0.74649334398989975
tp222
a(F0.93717551825297951
F12.890452949378547
F0.57042221197425003
tp223
a(F1.0930365978568879
F7.8694814334974188
F0.15470572631603408
tp224
a(F0.81478412429310187
F8.606565816180952
F0.67701606585115381
tp225
a(F0.91933042571198575
F9.245785076992691
F0.5650639808986071
tp226
a(F0.9232800981134851
F11.068409974502156
F0.55546717645495802
tp227
a(F1.0926757006426164
F10.21477861850987
F0.1738752750571857
tp228
a(F1.1058250715852374
F8.9959472137331851
F0.149690831207972
tp229
a(F0.79141119561381712
F7.8143372379379752
F0.61628930596649034
tp230
a(F1.1374909458123954
F10.702867391594509
F0.23740278010012839
tp231
a(F1.147477685274773
F13.566069914899268
F0.26437936884306967
tp232
a(F1.0998112883214746
F8.9632584499199535
F0.15167096336960839
tp233
a(F0.87834150283708956
F8.4182529022845927
F0.52229734456687138
tp234
a(F1.1414642761251459
F11.188478587939368
F0.25865239868193779
tp235
a(F0.90037391714247639
F7.6623160947272257
F0.5507889948976219
tp236
a(F0.91671918737661484
F9.8268487485275475
F0.56292927432543638
tp237
a(F1.1382307935362643
F9.4230426435512911
F0.22975005796262915
tp238
a(F1.0628177967674106
F10.810377099733255
F0.15190228012613338
tp239
a(F1.0900768095460354
F9.5133635228280724
F0.17444794628039995
tp240
a(F1.0968139456136363
F9.5382815462824819
F0.17159309372272868
tp241
a(F1.0805274651487653
F11.053022870049716
F0.14985979321254783
tp242
a(F0.88780064982736573
F10.7911036232914
F0.48946823023100505
tp243
a(F0.86101476906995988
F11.425041430782654
F0.44325040371573599
tp244
a(F1.1395927502614669
F9.6344815781778745
F0.22536854420339691
tp245
a(F0.91595431691189177
F10.589488296727495
F0.543842906765859
tp246
a(F0.8579339613806245
F9.2127029197661159
F0.48762274421739804
tp247
a(F0.89968743063926748
F9.6205956934510617
F0.50694173852621971
tp248
a(F0.74255760209352129
F11.775492879574236
F0.60839379706560093
tp249
a(F1.1157848643027324
F9.6356501245326722
F0.15364935480847086
tp250
a(F1.1354550563631498
F11.776614045600626
F0.26215794963744066
tp251
a(F0.8864796196059912
F7.9298830272237391
F0.5360322877469379
tp252
a(F1.0581639511218053
F13.379304946706728
F0.12139489244155321
tp253
a(F1.1160577940393053
F7.5882753639977905
F0.18973479799052573
tp254
a(F1.0764404049571503
F12.441891207698976
F0.1706049582047503
tp255
a(F0.84830528728619303
F9.2509611185919489
F0.47612756620347851
tp256
a(F1.1138051173884205
F11.84552145089372
F0.22173612190777481
tp257
a(F0.7836798648769232
F9.6247346315569473
F0.67632528727045427
tp258
a(F0.9423676862529452
F12.310444193012188
F0.57341899726151213
tp259
a(F0.88017904654363488
F7.4041765599195397
F0.50591978505940516
tp260
a(F0.88758276423751359
F8.7235518833299892
F0.48604625082108543
tp261
a(F0.81547469777810633
F11.047819495781322
F0.71121064811153045
tp262
a(F1.0970076000694224
F10.144880522250814
F0.17508572027367386
tp263
a(F1.0553717100540108
F15.357110534027189
F0.13457245084987213
tp264
a(F0.91626889318239424
F9.5455966854628187
F0.53628456380987688
tp265
a(F0.8893677755043442
F8.2216274523320454
F0.5611551423870792
tp266
a(F0.87990007442392737
F10.146510207348024
F0.46593114890735654
tp267
a(F0.89839692067342247
F9.4656194693123403
F0.51679330403287749
tp268
a(F1.0959642390849889
F9.3279243590554728
F0.17487501680608875
tp269
a(F1.1064408172796296
F9.2963315318544382
F0.15739387455008436
tp270
a(F0.88744742542490362
F9.970551864311199
F0.49199375083617092
tp271
a(F1.1211761826095186
F8.9794904546441341
F0.1756867528776912
tp272
a(F0.91274868523582886
F10.243020085097621
F0.54236118327629412
tp273
a(F1.1590928612224445
F19.24687440767946
F0.3022567870508267
tp274
a(F1.1260508685867456
F8.6838657259663137
F0.18051055590864595
tp275
a(F1.1854044216393254
F14.820736917393447
F0.95200598246282608
tp276
a(F1.0791620039559151
F11.60520029752224
F0.1491614631553061
tp277
a(F1.0895188248977596
F10.970090984450025
F0.1591735649089705
tp278
a(F0.89894755728550391
F9.2867492042037973
F0.51089009837493027
tp279
a(F1.1042698901886709
F8.8416069744622696
F0.15663628453822975
tp280
a(F0.73937678118878736
F10.604226521575875
F0.60295172836061905
tp281
a(F0.88756847176437148
F9.2754406269583694
F0.5115975997598069
tp282
a(F1.1000642119322876
F9.9549492199026339
F0.16299537058701463
tp283
a(F1.0860573963775881
F9.5801112420657422
F0.15281222996003652
tp284
a(F0.9453030973700155
F14.066113530533384
F0.57054901818090897
tp285
a(F1.1208229939596399
F8.7171325008955289
F0.20496393542284752
tp286
a(F0.9391587715502806
F14.175451820341733
F0.55714598561440853
tp287
a(F1.136449372805648
F8.0349745838548881
F0.19703801985429736
tp288
a(F1.1864516864839638
F14.087574623360094
F0.96081748860565441
tp289
a(F0.85735161390038128
F12.393937419850079
F0.42266947668011412
tp290
a(F0.86262858246052876
F9.405036129682534
F0.46011847468423506
tp291
a(F0.8926340219228095
F9.3995932390409092
F0.51998631754684854
tp292
a(F0.86185408449791423
F11.525201308120778
F0.44181227476492269
tp293
a(F0.91991664464235312
F10.595895021512849
F0.52289364174420605
tp294
a(F0.87229338467032225
F8.4955039469311036
F0.50033363739649794
tp295
a(F1.1078369425832042
F8.7439073939600824
F0.16585493141505714
tp296
a(F0.93293529419574128
F11.942904862621598
F0.55147365835781137
tp297
a(F0.94222868586072117
F12.079156425231618
F0.56056979562521891
tp298
a(F1.0827785475092291
F9.5988042953319095
F0.14766203450196858
tp299
a(F1.1397248369644846
F9.3849699721399524
F0.205439648729138
tp300
a(F1.2653774167231668
F11.161072834811874
F0.10184565709412086
tp301
a.